target datalayout = "e-m:e-p270:32:32-p271:32:32-p272:64:64-i64:64-i128:128-f80:128-n8:16:32:64-S128"
target triple = "x86_64-pc-linux-gnu"

@__const._ZL10cnvSigTypeP10UConverter.a = private unnamed_addr constant [1 x i16] [i16 97], align 2

; Function Attrs: inlinehint mustprogress nounwind uwtable
define internal noundef signext i8 @_ZL9U_SUCCESS10UErrorCode(i32 noundef %0) #7 {
  %2 = alloca i32, align 4
  store i32 %0, ptr %2, align 4, !tbaa !19
  %3 = load i32, ptr %2, align 4, !tbaa !19
  %4 = icmp sle i32 %3, 0
  %5 = zext i1 %4 to i8
  ret i8 %5
}

; Function Attrs: mustprogress uwtable
define internal noundef i32 @_ZL10cnvSigTypeP10UConverter(ptr noundef %0) #0 {
  %2 = alloca ptr, align 8
  %3 = alloca i32, align 4
  %4 = alloca i32, align 4
  %5 = alloca ptr, align 8
  %6 = alloca [1 x i16], align 2
  %7 = alloca ptr, align 8
  %8 = alloca [20 x i8], align 16
  %9 = alloca ptr, align 8
  store ptr %0, ptr %2, align 8, !tbaa !17
  call void @llvm.lifetime.start.p0(i64 4, ptr %3) #17
  call void @llvm.lifetime.start.p0(i64 4, ptr %4) #17
  call void @llvm.lifetime.start.p0(i64 8, ptr %5) #17
  %10 = call ptr @uset_open_77(i32 noundef 1, i32 noundef 0)
  store ptr %10, ptr %5, align 8, !tbaa !61
  store i32 0, ptr %3, align 4, !tbaa !19
  %11 = load ptr, ptr %2, align 8, !tbaa !17
  %12 = load ptr, ptr %5, align 8, !tbaa !61
  call void @ucnv_getUnicodeSet_77(ptr noundef %11, ptr noundef %12, i32 noundef 0, ptr noundef %3)
  %13 = load i32, ptr %3, align 4, !tbaa !19
  %14 = call noundef signext i8 @_ZL9U_SUCCESS10UErrorCode(i32 noundef %13)
  %15 = icmp ne i8 %14, 0
  br i1 %15, label %16, label %21

16:                                               ; preds = %1
  %17 = load ptr, ptr %5, align 8, !tbaa !61
  %18 = call signext i8 @uset_contains_77(ptr noundef %17, i32 noundef 65279)
  %19 = icmp ne i8 %18, 0
  br i1 %19, label %20, label %21

20:                                               ; preds = %16
  store i32 1, ptr %4, align 4, !tbaa !15
  br label %22

21:                                               ; preds = %16, %1
  store i32 0, ptr %4, align 4, !tbaa !15
  br label %22

22:                                               ; preds = %21, %20
  %23 = load ptr, ptr %5, align 8, !tbaa !61
  call void @uset_close_77(ptr noundef %23)
  %24 = load i32, ptr %4, align 4, !tbaa !15
  %25 = icmp eq i32 %24, 1
  br i1 %25, label %26, label %50

26:                                               ; preds = %22
  call void @llvm.lifetime.start.p0(i64 2, ptr %6) #17
  call void @llvm.memcpy.p0.p0.i64(ptr align 2 %6, ptr align 2 @__const._ZL10cnvSigTypeP10UConverter.a, i64 2, i1 false)
  call void @llvm.lifetime.start.p0(i64 8, ptr %7) #17
  call void @llvm.lifetime.start.p0(i64 20, ptr %8) #17
  call void @llvm.lifetime.start.p0(i64 8, ptr %9) #17
  %27 = getelementptr inbounds [1 x i16], ptr %6, i64 0, i64 0
  store ptr %27, ptr %7, align 8, !tbaa !35
  %28 = getelementptr inbounds [20 x i8], ptr %8, i64 0, i64 0
  store ptr %28, ptr %9, align 8, !tbaa !9
  store i32 0, ptr %3, align 4, !tbaa !19
  %29 = load ptr, ptr %2, align 8, !tbaa !17
  %30 = getelementptr inbounds [20 x i8], ptr %8, i64 0, i64 0
  %31 = getelementptr inbounds nuw i8, ptr %30, i64 20
  %32 = getelementptr inbounds [1 x i16], ptr %6, i64 0, i64 0
  %33 = getelementptr inbounds i16, ptr %32, i64 1
  call void @ucnv_fromUnicode_77(ptr noundef %29, ptr noundef %9, ptr noundef %31, ptr noundef %7, ptr noundef %33, ptr noundef null, i8 noundef signext 1, ptr noundef %3)
  %34 = load ptr, ptr %2, align 8, !tbaa !17
  call void @ucnv_resetFromUnicode_77(ptr noundef %34)
  %35 = getelementptr inbounds [20 x i8], ptr %8, i64 0, i64 0
  %36 = load ptr, ptr %9, align 8, !tbaa !9
  %37 = getelementptr inbounds [20 x i8], ptr %8, i64 0, i64 0
  %38 = ptrtoint ptr %36 to i64
  %39 = ptrtoint ptr %37 to i64
  %40 = sub i64 %38, %39
  %41 = trunc i64 %40 to i32
  %42 = call ptr @ucnv_detectUnicodeSignature_77(ptr noundef %35, i32 noundef %41, ptr noundef null, ptr noundef %3)
  %43 = icmp ne ptr null, %42
  br i1 %43, label %44, label %49

44:                                               ; preds = %26
  %45 = load i32, ptr %3, align 4, !tbaa !19
  %46 = call noundef signext i8 @_ZL9U_SUCCESS10UErrorCode(i32 noundef %45)
  %47 = icmp ne i8 %46, 0
  br i1 %47, label %48, label %49

48:                                               ; preds = %44
  store i32 2, ptr %4, align 4, !tbaa !15
  br label %49

49:                                               ; preds = %48, %44, %26
  call void @llvm.lifetime.end.p0(i64 8, ptr %9) #17
  call void @llvm.lifetime.end.p0(i64 20, ptr %8) #17
  call void @llvm.lifetime.end.p0(i64 8, ptr %7) #17
  call void @llvm.lifetime.end.p0(i64 2, ptr %6) #17
  br label %50

50:                                               ; preds = %49, %22
  %51 = load i32, ptr %4, align 4, !tbaa !15
  call void @llvm.lifetime.end.p0(i64 8, ptr %5) #17
  call void @llvm.lifetime.end.p0(i64 4, ptr %4) #17
  call void @llvm.lifetime.end.p0(i64 4, ptr %3) #17
  ret i32 %51
}