; Function Attrs: mustprogress uwtable
define internal fastcc noundef range(i32 0, 3) i32 @_ZL10cnvSigTypeP10UConverter(ptr noundef %0) unnamed_addr #0 {
  %2 = alloca i32, align 4
  %3 = alloca [1 x i16], align 2
  %4 = alloca ptr, align 8
  %5 = alloca [20 x i8], align 16
  %6 = alloca ptr, align 8
  call void @llvm.lifetime.start.p0(i64 4, ptr nonnull %2) #20
  %7 = tail call ptr @uset_open_77(i32 noundef 1, i32 noundef 0)
  store i32 0, ptr %2, align 4, !tbaa !4
  call void @ucnv_getUnicodeSet_77(ptr noundef %0, ptr noundef %7, i32 noundef 0, ptr noundef nonnull %2)
  %8 = load i32, ptr %2, align 4, !tbaa !4
  %9 = icmp sgt i32 %8, 0
  br i1 %9, label %.critedge, label %10

10:                                               ; preds = %1
  %11 = call signext i8 @uset_contains_77(ptr noundef %7, i32 noundef 65279)
  %.not7 = icmp eq i8 %11, 0
  br i1 %.not7, label %.critedge, label %12

.critedge:                                        ; preds = %10, %1
  call void @uset_close_77(ptr noundef %7)
  br label %22

12:                                               ; preds = %10
  call void @uset_close_77(ptr noundef %7)
  call void @llvm.lifetime.start.p0(i64 2, ptr nonnull %3) #20
  store i16 97, ptr %3, align 2
  call void @llvm.lifetime.start.p0(i64 8, ptr nonnull %4) #20
  call void @llvm.lifetime.start.p0(i64 20, ptr nonnull %5) #20
  call void @llvm.lifetime.start.p0(i64 8, ptr nonnull %6) #20
  store ptr %3, ptr %4, align 8, !tbaa !31
  store ptr %5, ptr %6, align 8, !tbaa !30
  store i32 0, ptr %2, align 4, !tbaa !4
  %13 = getelementptr inbounds nuw i8, ptr %5, i64 20
  %14 = getelementptr inbounds nuw i8, ptr %3, i64 2
  call void @ucnv_fromUnicode_77(ptr noundef %0, ptr noundef nonnull %6, ptr noundef nonnull %13, ptr noundef nonnull %4, ptr noundef nonnull %14, ptr noundef null, i8 noundef signext 1, ptr noundef nonnull %2)
  call void @ucnv_resetFromUnicode_77(ptr noundef %0)
  %15 = load ptr, ptr %6, align 8, !tbaa !30
  %16 = ptrtoint ptr %15 to i64
  %17 = ptrtoint ptr %5 to i64
  %18 = sub i64 %16, %17
  %19 = trunc i64 %18 to i32
  %20 = call ptr @ucnv_detectUnicodeSignature_77(ptr noundef nonnull %5, i32 noundef %19, ptr noundef null, ptr noundef nonnull %2)
  %.not8 = icmp eq ptr %20, null
  %21 = load i32, ptr %2, align 4
  %.inv = icmp slt i32 %21, 1
  %spec.select = select i1 %.inv, i32 2, i32 1
  %.2 = select i1 %.not8, i32 1, i32 %spec.select
  call void @llvm.lifetime.end.p0(i64 8, ptr nonnull %6) #20
  call void @llvm.lifetime.end.p0(i64 20, ptr nonnull %5) #20
  call void @llvm.lifetime.end.p0(i64 8, ptr nonnull %4) #20
  call void @llvm.lifetime.end.p0(i64 2, ptr nonnull %3) #20
  br label %22

22:                                               ; preds = %.critedge, %12
  %.1 = phi i32 [ %.2, %12 ], [ 0, %.critedge ]
  call void @llvm.lifetime.end.p0(i64 4, ptr nonnull %2) #20
  ret i32 %.1
}